; Function Attrs: nounwind uwtable
define i32 @TLSX_KeyShare_Establish(ptr noundef %0, ptr noundef writeonly captures(none) initializes((0, 4)) %1) local_unnamed_addr #0 {
  %3 = alloca ptr, align 8
  %4 = alloca i8, align 1
  call void @llvm.lifetime.start.p0(i64 8, ptr nonnull %3) #17
  store ptr null, ptr %3, align 8, !tbaa !157
  call void @llvm.lifetime.start.p0(i64 1, ptr nonnull %4) #17
  store i8 0, ptr %4, align 1, !tbaa !51
  store i32 0, ptr %1, align 4, !tbaa !3
  %5 = getelementptr inbounds nuw i8, ptr %0, i64 1224
  %6 = load ptr, ptr %5, align 8, !tbaa !100
  %7 = call i32 @TLSX_KeyShare_Choose(ptr noundef %0, ptr noundef %6, i8 zeroext poison, i8 zeroext poison, ptr noundef nonnull %3, ptr noundef nonnull %4)
  %8 = icmp eq i32 %7, 0
  %9 = load i8, ptr %4, align 1
  %10 = icmp ne i8 %9, 0
  %or.cond = select i1 %8, i1 %10, i1 false
  br i1 %or.cond, label %11, label %18

11:                                               ; preds = %2
  %12 = load ptr, ptr %3, align 8, !tbaa !157
  %13 = icmp eq ptr %12, null
  br i1 %13, label %14, label %16

14:                                               ; preds = %11
  store i32 1, ptr %1, align 4, !tbaa !3
  %15 = tail call i32 @TLSX_KeyShare_SetSupported(ptr noundef nonnull %0, ptr noundef nonnull %5)
  br label %18

16:                                               ; preds = %11
  %17 = tail call i32 @TLSX_KeyShare_Setup(ptr noundef nonnull %0, ptr noundef nonnull %12)
  br label %18

18:                                               ; preds = %2, %16, %14
  %.0 = phi i32 [ %15, %14 ], [ %17, %16 ], [ %7, %2 ]
  call void @llvm.lifetime.end.p0(i64 1, ptr nonnull %4) #17
  call void @llvm.lifetime.end.p0(i64 8, ptr nonnull %3) #17
  ret i32 %.0
}